; Function Attrs: nounwind uwtable
define internal i32 @query_formats(ptr noundef %0, ptr noundef %1, ptr noundef %2) #1 {
  %4 = getelementptr inbounds nuw i8, ptr %0, i64 72
  %5 = load ptr, ptr %4, align 8, !tbaa !4
  %6 = getelementptr inbounds nuw i8, ptr %5, i64 68
  %7 = load i32, ptr %6, align 4, !tbaa !34
  %.not = icmp eq i32 %7, 0
  %8 = select i1 %.not, ptr @query_formats.no_alpha_pix_fmts, ptr @query_formats.alpha_pix_fmts
  %9 = tail call i32 @ff_set_common_formats_from_list2(ptr noundef %0, ptr noundef %1, ptr noundef %2, ptr noundef nonnull %8) #11
  ret i32 %9
}